target datalayout = "e-m:e-p270:32:32-p271:32:32-p272:64:64-i64:64-i128:128-f80:128-n8:16:32:64-S128"
target triple = "x86_64-pc-linux-gnu"

%"class.gmx::TrajectoryAnalysisRunnerCommon::Impl" = type { %"class.gmx::ITopologyProvider", ptr, %"class.gmx::TopologyInformation", %"class.std::__cxx11::basic_string", %"class.std::__cxx11::basic_string", %"class.gmx::Selection", double, double, double, i8, i8, i8, i8, ptr, ptr, ptr, ptr }
%"class.gmx::ITopologyProvider" = type { ptr }
%"class.gmx::TopologyInformation" = type { %"class.std::unique_ptr", i8, %"class.std::unique_ptr.2", %"class.std::unique_ptr.10", i8, %"class.std::vector", %"class.std::vector", [3 x [3 x float]], i32 }
%"class.std::unique_ptr" = type { %"struct.std::__uniq_ptr_data" }
%"struct.std::__uniq_ptr_data" = type { %"class.std::__uniq_ptr_impl" }
%"class.std::__uniq_ptr_impl" = type { %"class.std::tuple" }
%"class.std::tuple" = type { %"struct.std::_Tuple_impl" }
%"struct.std::_Tuple_impl" = type { %"struct.std::_Head_base.1" }
%"struct.std::_Head_base.1" = type { ptr }
%"class.std::unique_ptr.2" = type { %"struct.std::__uniq_ptr_data.3" }
%"struct.std::__uniq_ptr_data.3" = type { %"class.std::__uniq_ptr_impl.4" }
%"class.std::__uniq_ptr_impl.4" = type { %"class.std::tuple.5" }
%"class.std::tuple.5" = type { %"struct.std::_Tuple_impl.6" }
%"struct.std::_Tuple_impl.6" = type { %"struct.std::_Head_base.9" }
%"struct.std::_Head_base.9" = type { ptr }
%"class.std::unique_ptr.10" = type { %"struct.std::__uniq_ptr_data.11" }
%"struct.std::__uniq_ptr_data.11" = type { %"class.std::__uniq_ptr_impl.12" }
%"class.std::__uniq_ptr_impl.12" = type { %"class.std::tuple.13" }
%"class.std::tuple.13" = type { %"struct.std::_Tuple_impl.14" }
%"struct.std::_Tuple_impl.14" = type { %"struct.std::_Head_base.17" }
%"struct.std::_Head_base.17" = type { ptr }
%"class.std::vector" = type { %"struct.std::_Vector_base" }
%"struct.std::_Vector_base" = type { %"struct.std::_Vector_base<gmx::BasicVector<float>, std::allocator<gmx::BasicVector<float>>>::_Vector_impl" }
%"struct.std::_Vector_base<gmx::BasicVector<float>, std::allocator<gmx::BasicVector<float>>>::_Vector_impl" = type { %"struct.std::_Vector_base<gmx::BasicVector<float>, std::allocator<gmx::BasicVector<float>>>::_Vector_impl_data" }
%"struct.std::_Vector_base<gmx::BasicVector<float>, std::allocator<gmx::BasicVector<float>>>::_Vector_impl_data" = type { ptr, ptr, ptr }
%"class.std::__cxx11::basic_string" = type { %"struct.std::__cxx11::basic_string<char>::_Alloc_hider", i64, %union.anon }
%"struct.std::__cxx11::basic_string<char>::_Alloc_hider" = type { ptr }
%union.anon = type { i64, [8 x i8] }
%"class.gmx::Selection" = type { ptr }
%struct.t_trxframe = type { i32, i8, i32, i8, i64, i8, float, i8, i8, float, i32, i8, ptr, i8, float, i8, ptr, i8, ptr, i8, ptr, i8, [3 x [3 x float]], i8, i32, i8, ptr }

@.str = private unnamed_addr constant [6 x i8] c"fr->x\00", align 1
@.str.1 = private unnamed_addr constant [141 x i8] c"generated/home/dtcxzyw/WorkSpace/Projects/compilers/llvm-opt-benchmark/bench/gromacs/gromacs/src/gromacs/trajectoryanalysis/runnercommon.cpp\00", align 1
@.str.2 = private unnamed_addr constant [6 x i8] c"fr->v\00", align 1
@.str.3 = private unnamed_addr constant [6 x i8] c"fr->f\00", align 1
@.str.4 = private unnamed_addr constant [10 x i8] c"fr->index\00", align 1
@.str.5 = private unnamed_addr constant [3 x i8] c"fr\00", align 1

; Function Attrs: mustprogress uwtable
define internal void @_ZL14gmx_sfree_implI10t_trxframeEvPKcS2_iPT_(ptr noundef %0, ptr noundef %1, i32 noundef %2, ptr noundef %3) #0 {
  %5 = alloca ptr, align 8
  %6 = alloca ptr, align 8
  %7 = alloca i32, align 4
  %8 = alloca ptr, align 8
  store ptr %0, ptr %5, align 8
  store ptr %1, ptr %6, align 8
  store i32 %2, ptr %7, align 4
  store ptr %3, ptr %8, align 8
  %9 = load ptr, ptr %5, align 8
  %10 = load ptr, ptr %6, align 8
  %11 = load i32, ptr %7, align 4
  %12 = load ptr, ptr %8, align 8
  call void @_Z9save_freePKcS0_iPv(ptr noundef %9, ptr noundef %10, i32 noundef %11, ptr noundef %12)
  ret void
}

; Function Attrs: mustprogress uwtable
define internal void @_ZL14gmx_sfree_implIiEvPKcS1_iPT_(ptr noundef %0, ptr noundef %1, i32 noundef %2, ptr noundef %3) #0 {
  %5 = alloca ptr, align 8
  %6 = alloca ptr, align 8
  %7 = alloca i32, align 4
  %8 = alloca ptr, align 8
  store ptr %0, ptr %5, align 8
  store ptr %1, ptr %6, align 8
  store i32 %2, ptr %7, align 4
  store ptr %3, ptr %8, align 8
  %9 = load ptr, ptr %5, align 8
  %10 = load ptr, ptr %6, align 8
  %11 = load i32, ptr %7, align 4
  %12 = load ptr, ptr %8, align 8
  call void @_Z9save_freePKcS0_iPv(ptr noundef %9, ptr noundef %10, i32 noundef %11, ptr noundef %12)
  ret void
}

; Function Attrs: mustprogress uwtable
define internal void @_ZL14gmx_sfree_implIA3_fEvPKcS2_iPT_(ptr noundef %0, ptr noundef %1, i32 noundef %2, ptr noundef %3) #0 {
  %5 = alloca ptr, align 8
  %6 = alloca ptr, align 8
  %7 = alloca i32, align 4
  %8 = alloca ptr, align 8
  store ptr %0, ptr %5, align 8
  store ptr %1, ptr %6, align 8
  store i32 %2, ptr %7, align 4
  store ptr %3, ptr %8, align 8
  %9 = load ptr, ptr %5, align 8
  %10 = load ptr, ptr %6, align 8
  %11 = load i32, ptr %7, align 4
  %12 = load ptr, ptr %8, align 8
  call void @_Z9save_freePKcS0_iPv(ptr noundef %9, ptr noundef %10, i32 noundef %11, ptr noundef %12)
  ret void
}

; Function Attrs: mustprogress uwtable
define void @_ZN3gmx30TrajectoryAnalysisRunnerCommon4Impl16finishTrajectoryEv(ptr noundef nonnull align 8 dereferenceable(280) %0) #0 align 2 {
  %2 = alloca ptr, align 8
  store ptr %0, ptr %2, align 8
  %3 = load ptr, ptr %2, align 8
  %4 = getelementptr inbounds %"class.gmx::TrajectoryAnalysisRunnerCommon::Impl", ptr %3, i32 0, i32 12
  %5 = load i8, ptr %4, align 1
  %6 = trunc i8 %5 to i1
  br i1 %6, label %7, label %11

7:                                                ; preds = %1
  %8 = getelementptr inbounds %"class.gmx::TrajectoryAnalysisRunnerCommon::Impl", ptr %3, i32 0, i32 15
  %9 = load ptr, ptr %8, align 8
  call void @_Z9close_trxP11t_trxstatus(ptr noundef %9)
  %10 = getelementptr inbounds %"class.gmx::TrajectoryAnalysisRunnerCommon::Impl", ptr %3, i32 0, i32 12
  store i8 0, ptr %10, align 1
  br label %11

11:                                               ; preds = %7, %1
  %12 = getelementptr inbounds %"class.gmx::TrajectoryAnalysisRunnerCommon::Impl", ptr %3, i32 0, i32 14
  %13 = load ptr, ptr %12, align 8
  %14 = icmp ne ptr %13, null
  br i1 %14, label %15, label %19

15:                                               ; preds = %11
  %16 = getelementptr inbounds %"class.gmx::TrajectoryAnalysisRunnerCommon::Impl", ptr %3, i32 0, i32 14
  %17 = load ptr, ptr %16, align 8
  call void @_Z14gmx_rmpbc_doneP9gmx_rmpbc(ptr noundef %17)
  %18 = getelementptr inbounds %"class.gmx::TrajectoryAnalysisRunnerCommon::Impl", ptr %3, i32 0, i32 14
  store ptr null, ptr %18, align 8
  br label %19

19:                                               ; preds = %15, %11
  ret void
}

; Function Attrs: mustprogress nounwind uwtable
define void @_ZN3gmx30TrajectoryAnalysisRunnerCommon4ImplD2Ev(ptr noundef nonnull align 8 dereferenceable(280) %0) unnamed_addr #1 align 2 personality ptr @__gxx_personality_v0 {
  %2 = alloca ptr, align 8
  store ptr %0, ptr %2, align 8
  %3 = load ptr, ptr %2, align 8
  store ptr getelementptr inbounds inrange(-16, 32) ({ [6 x ptr] }, ptr @_ZTVN3gmx30TrajectoryAnalysisRunnerCommon4ImplE, i32 0, i32 0, i32 2), ptr %3, align 8
  invoke void @_ZN3gmx30TrajectoryAnalysisRunnerCommon4Impl16finishTrajectoryEv(ptr noundef nonnull align 8 dereferenceable(280) %3)
          to label %4 unwind label %44

4:                                                ; preds = %1
  %5 = getelementptr inbounds %"class.gmx::TrajectoryAnalysisRunnerCommon::Impl", ptr %3, i32 0, i32 13
  %6 = load ptr, ptr %5, align 8
  %7 = icmp ne ptr %6, null
  br i1 %7, label %8, label %32

8:                                                ; preds = %4
  %9 = getelementptr inbounds %"class.gmx::TrajectoryAnalysisRunnerCommon::Impl", ptr %3, i32 0, i32 13
  %10 = load ptr, ptr %9, align 8
  %11 = getelementptr inbounds %struct.t_trxframe, ptr %10, i32 0, i32 16
  %12 = load ptr, ptr %11, align 8
  invoke void @_ZL14gmx_sfree_implIA3_fEvPKcS2_iPT_(ptr noundef @.str, ptr noundef @.str.1, i32 noundef 161, ptr noundef %12)
          to label %13 unwind label %44

13:                                               ; preds = %8
  %14 = getelementptr inbounds %"class.gmx::TrajectoryAnalysisRunnerCommon::Impl", ptr %3, i32 0, i32 13
  %15 = load ptr, ptr %14, align 8
  %16 = getelementptr inbounds %struct.t_trxframe, ptr %15, i32 0, i32 18
  %17 = load ptr, ptr %16, align 8
  invoke void @_ZL14gmx_sfree_implIA3_fEvPKcS2_iPT_(ptr noundef @.str.2, ptr noundef @.str.1, i32 noundef 162, ptr noundef %17)
          to label %18 unwind label %44

18:                                               ; preds = %13
  %19 = getelementptr inbounds %"class.gmx::TrajectoryAnalysisRunnerCommon::Impl", ptr %3, i32 0, i32 13
  %20 = load ptr, ptr %19, align 8
  %21 = getelementptr inbounds %struct.t_trxframe, ptr %20, i32 0, i32 20
  %22 = load ptr, ptr %21, align 8
  invoke void @_ZL14gmx_sfree_implIA3_fEvPKcS2_iPT_(ptr noundef @.str.3, ptr noundef @.str.1, i32 noundef 163, ptr noundef %22)
          to label %23 unwind label %44

23:                                               ; preds = %18
  %24 = getelementptr inbounds %"class.gmx::TrajectoryAnalysisRunnerCommon::Impl", ptr %3, i32 0, i32 13
  %25 = load ptr, ptr %24, align 8
  %26 = getelementptr inbounds %struct.t_trxframe, ptr %25, i32 0, i32 26
  %27 = load ptr, ptr %26, align 8
  invoke void @_ZL14gmx_sfree_implIiEvPKcS1_iPT_(ptr noundef @.str.4, ptr noundef @.str.1, i32 noundef 164, ptr noundef %27)
          to label %28 unwind label %44

28:                                               ; preds = %23
  %29 = getelementptr inbounds %"class.gmx::TrajectoryAnalysisRunnerCommon::Impl", ptr %3, i32 0, i32 13
  %30 = load ptr, ptr %29, align 8
  invoke void @_ZL14gmx_sfree_implI10t_trxframeEvPKcS2_iPT_(ptr noundef @.str.5, ptr noundef @.str.1, i32 noundef 165, ptr noundef %30)
          to label %31 unwind label %44

31:                                               ; preds = %28
  br label %32

32:                                               ; preds = %31, %4
  %33 = getelementptr inbounds %"class.gmx::TrajectoryAnalysisRunnerCommon::Impl", ptr %3, i32 0, i32 16
  %34 = load ptr, ptr %33, align 8
  %35 = icmp ne ptr %34, null
  br i1 %35, label %36, label %40

36:                                               ; preds = %32
  %37 = getelementptr inbounds %"class.gmx::TrajectoryAnalysisRunnerCommon::Impl", ptr %3, i32 0, i32 16
  %38 = load ptr, ptr %37, align 8
  invoke void @_Z15output_env_doneP16gmx_output_env_t(ptr noundef %38)
          to label %39 unwind label %44

39:                                               ; preds = %36
  br label %40

40:                                               ; preds = %39, %32
  %41 = getelementptr inbounds %"class.gmx::TrajectoryAnalysisRunnerCommon::Impl", ptr %3, i32 0, i32 4
  call void @_ZNSt7__cxx1112basic_stringIcSt11char_traitsIcESaIcEED1Ev(ptr noundef nonnull align 8 dereferenceable(32) %41) #11
  %42 = getelementptr inbounds %"class.gmx::TrajectoryAnalysisRunnerCommon::Impl", ptr %3, i32 0, i32 3
  call void @_ZNSt7__cxx1112basic_stringIcSt11char_traitsIcESaIcEED1Ev(ptr noundef nonnull align 8 dereferenceable(32) %42) #11
  %43 = getelementptr inbounds %"class.gmx::TrajectoryAnalysisRunnerCommon::Impl", ptr %3, i32 0, i32 2
  call void @_ZN3gmx19TopologyInformationD1Ev(ptr noundef nonnull align 8 dereferenceable(128) %43) #11
  call void @_ZN3gmx17ITopologyProviderD2Ev(ptr noundef nonnull align 8 dereferenceable(8) %3) #11
  ret void

44:                                               ; preds = %36, %28, %23, %18, %13, %8, %1
  %45 = landingpad { ptr, i32 }
          catch ptr null
  %46 = extractvalue { ptr, i32 } %45, 0
  call void @__clang_call_terminate(ptr %46) #14
  unreachable
}